; Function Attrs: nofree norecurse nosync nounwind memory(readwrite, inaccessiblemem: none) uwtable
define internal noundef i32 @maskfun8(ptr noundef readonly captures(none) %0, ptr noundef readonly captures(none) %1, i32 noundef %2, i32 noundef %3) #4 {
  %5 = getelementptr inbounds nuw i8, ptr %0, i64 72
  %6 = load ptr, ptr %5, align 8, !tbaa !4
  %7 = getelementptr inbounds nuw i8, ptr %6, i64 96
  %8 = load ptr, ptr %7, align 8, !tbaa !63
  %9 = getelementptr inbounds nuw i8, ptr %6, i64 8
  %10 = load i32, ptr %9, align 8, !tbaa !71
  %11 = getelementptr inbounds nuw i8, ptr %6, i64 12
  %12 = load i32, ptr %11, align 4, !tbaa !72
  %13 = getelementptr inbounds nuw i8, ptr %6, i64 76
  %14 = load i32, ptr %13, align 4, !tbaa !26
  %15 = icmp sgt i32 %14, 0
  br i1 %15, label %.lr.ph, label %._crit_edge

.lr.ph:                                           ; preds = %4
  %16 = getelementptr inbounds nuw i8, ptr %6, i64 84
  %17 = load i32, ptr %16, align 4, !tbaa !31
  %18 = getelementptr inbounds nuw i8, ptr %8, i64 64
  %19 = getelementptr inbounds nuw i8, ptr %1, i64 64
  %20 = getelementptr inbounds nuw i8, ptr %6, i64 44
  %21 = getelementptr inbounds nuw i8, ptr %6, i64 60
  %22 = add nsw i32 %2, 1
  %23 = getelementptr inbounds nuw i8, ptr %6, i64 16
  %24 = trunc i32 %17 to i8
  br label %25

25:                                               ; preds = %.lr.ph, %.loopexit
  %26 = phi i32 [ %14, %.lr.ph ], [ %69, %.loopexit ]
  %indvars.iv72 = phi i64 [ 0, %.lr.ph ], [ %indvars.iv.next73, %.loopexit ]
  %27 = getelementptr inbounds nuw [8 x i32], ptr %18, i64 0, i64 %indvars.iv72
  %28 = load i32, ptr %27, align 4, !tbaa !28
  %29 = getelementptr inbounds nuw [8 x i32], ptr %19, i64 0, i64 %indvars.iv72
  %30 = load i32, ptr %29, align 4, !tbaa !28
  %31 = getelementptr inbounds nuw [4 x i32], ptr %20, i64 0, i64 %indvars.iv72
  %32 = load i32, ptr %31, align 4, !tbaa !28
  %33 = getelementptr inbounds nuw [4 x i32], ptr %21, i64 0, i64 %indvars.iv72
  %34 = load i32, ptr %33, align 4, !tbaa !28
  %35 = mul nsw i32 %34, %22
  %36 = sdiv i32 %35, %3
  %37 = trunc nuw nsw i64 %indvars.iv72 to i32
  %38 = shl nuw i32 1, %37
  %39 = load i32, ptr %23, align 8, !tbaa !27
  %40 = and i32 %39, %38
  %.not = icmp eq i32 %40, 0
  br i1 %.not, label %.loopexit, label %41

41:                                               ; preds = %25
  %42 = mul nsw i32 %34, %2
  %43 = sdiv i32 %42, %3
  %44 = icmp slt i32 %43, %36
  br i1 %44, label %.preheader.lr.ph, label %.loopexit

.preheader.lr.ph:                                 ; preds = %41
  %45 = icmp sgt i32 %32, 0
  %46 = sext i32 %28 to i64
  %47 = sext i32 %30 to i64
  br i1 %45, label %.preheader.us.preheader, label %.loopexit

.preheader.us.preheader:                          ; preds = %.preheader.lr.ph
  %48 = getelementptr inbounds nuw [8 x ptr], ptr %1, i64 0, i64 %indvars.iv72
  %49 = load ptr, ptr %48, align 8, !tbaa !34
  %50 = mul nsw i32 %43, %30
  %51 = sext i32 %50 to i64
  %52 = getelementptr inbounds i8, ptr %49, i64 %51
  %53 = getelementptr inbounds nuw [8 x ptr], ptr %8, i64 0, i64 %indvars.iv72
  %54 = load ptr, ptr %53, align 8, !tbaa !34
  %55 = mul nsw i32 %43, %28
  %56 = sext i32 %55 to i64
  %57 = getelementptr inbounds i8, ptr %54, i64 %56
  %wide.trip.count = zext nneg i32 %32 to i64
  br label %.preheader.us

.preheader.us:                                    ; preds = %.preheader.us.preheader, %._crit_edge.us
  %.05867.us = phi i32 [ %68, %._crit_edge.us ], [ %43, %.preheader.us.preheader ]
  %.05966.us = phi ptr [ %67, %._crit_edge.us ], [ %52, %.preheader.us.preheader ]
  %.06065.us = phi ptr [ %66, %._crit_edge.us ], [ %57, %.preheader.us.preheader ]
  br label %58

58:                                               ; preds = %.preheader.us, %65
  %indvars.iv = phi i64 [ 0, %.preheader.us ], [ %indvars.iv.next, %65 ]
  %59 = getelementptr inbounds nuw i8, ptr %.06065.us, i64 %indvars.iv
  %60 = load i8, ptr %59, align 1, !tbaa !73
  %61 = getelementptr inbounds nuw i8, ptr %.05966.us, i64 %indvars.iv
  store i8 %60, ptr %61, align 1, !tbaa !73
  %62 = zext i8 %60 to i32
  %.not63.us = icmp slt i32 %10, %62
  br i1 %.not63.us, label %63, label %.sink.split

63:                                               ; preds = %58
  %64 = icmp slt i32 %12, %62
  br i1 %64, label %.sink.split, label %65

.sink.split:                                      ; preds = %63, %58
  %.sink = phi i8 [ 0, %58 ], [ %24, %63 ]
  store i8 %.sink, ptr %61, align 1, !tbaa !73
  br label %65

65:                                               ; preds = %.sink.split, %63
  %indvars.iv.next = add nuw nsw i64 %indvars.iv, 1
  %exitcond.not = icmp eq i64 %indvars.iv.next, %wide.trip.count
  br i1 %exitcond.not, label %._crit_edge.us, label %58, !llvm.loop !74

._crit_edge.us:                                   ; preds = %65
  %66 = getelementptr inbounds i8, ptr %.06065.us, i64 %46
  %67 = getelementptr inbounds i8, ptr %.05966.us, i64 %47
  %68 = add nsw i32 %.05867.us, 1
  %exitcond71.not = icmp eq i32 %68, %36
  br i1 %exitcond71.not, label %.loopexit.loopexit, label %.preheader.us, !llvm.loop !75

.loopexit.loopexit:                               ; preds = %._crit_edge.us
  %.pre = load i32, ptr %13, align 4, !tbaa !26
  br label %.loopexit

.loopexit:                                        ; preds = %.preheader.lr.ph, %.loopexit.loopexit, %41, %25
  %69 = phi i32 [ %.pre, %.loopexit.loopexit ], [ %26, %41 ], [ %26, %25 ], [ %26, %.preheader.lr.ph ]
  %indvars.iv.next73 = add nuw nsw i64 %indvars.iv72, 1
  %70 = sext i32 %69 to i64
  %71 = icmp slt i64 %indvars.iv.next73, %70
  br i1 %71, label %25, label %._crit_edge, !llvm.loop !76

._crit_edge:                                      ; preds = %.loopexit, %4
  ret i32 0
}